; Function Attrs: mustprogress uwtable
define hidden noundef ptr @pj_fouc_s(ptr noundef %0) local_unnamed_addr #0 {
  %.not = icmp eq ptr %0, null
  br i1 %.not, label %24, label %2

2:                                                ; preds = %1
  %3 = tail call noalias dereferenceable_or_null(16) ptr @calloc(i64 noundef 1, i64 noundef 16) #6
  %4 = icmp eq ptr %3, null
  br i1 %4, label %5, label %7

5:                                                ; preds = %2
  %6 = tail call noundef ptr @_Z21pj_default_destructorP8PJconstsi(ptr noundef nonnull %0, i32 noundef 4096)
  br label %_Z35pj_projection_specific_setup_fouc_sP8PJconsts.exit

7:                                                ; preds = %2
  %8 = getelementptr inbounds nuw i8, ptr %0, i64 88
  store ptr %3, ptr %8, align 8, !tbaa !3
  %9 = load ptr, ptr %0, align 8, !tbaa !36
  %10 = getelementptr inbounds nuw i8, ptr %0, i64 24
  %11 = load ptr, ptr %10, align 8, !tbaa !37
  %12 = tail call i64 @_Z8pj_paramP6pj_ctxP8ARG_listPKc(ptr noundef %9, ptr noundef %11, ptr noundef nonnull @.str.1)
  %13 = bitcast i64 %12 to double
  store i64 %12, ptr %3, align 8, !tbaa !38
  %14 = fcmp olt double %13, 0.000000e+00
  %15 = fcmp ogt double %13, 1.000000e+00
  %or.cond.i = or i1 %14, %15
  br i1 %or.cond.i, label %16, label %18

16:                                               ; preds = %7
  tail call void (ptr, ptr, ...) @_Z14proj_log_errorPK8PJconstsPKcz(ptr noundef nonnull %0, ptr noundef nonnull @.str.2)
  %17 = tail call noundef ptr @_Z21pj_default_destructorP8PJconstsi(ptr noundef nonnull %0, i32 noundef 1027)
  br label %_Z35pj_projection_specific_setup_fouc_sP8PJconsts.exit

18:                                               ; preds = %7
  %19 = fsub double 1.000000e+00, %13
  %20 = getelementptr inbounds nuw i8, ptr %3, i64 8
  store double %19, ptr %20, align 8, !tbaa !40
  %21 = getelementptr inbounds nuw i8, ptr %0, i64 216
  store double 0.000000e+00, ptr %21, align 8, !tbaa !41
  %22 = getelementptr inbounds nuw i8, ptr %0, i64 112
  store ptr @_ZL16fouc_s_s_inverse5PJ_XYP8PJconsts, ptr %22, align 8, !tbaa !42
  %23 = getelementptr inbounds nuw i8, ptr %0, i64 104
  store ptr @_ZL16fouc_s_s_forward5PJ_LPP8PJconsts, ptr %23, align 8, !tbaa !43
  br label %_Z35pj_projection_specific_setup_fouc_sP8PJconsts.exit

24:                                               ; preds = %1
  %25 = tail call noundef ptr @_Z6pj_newv()
  %26 = icmp eq ptr %25, null
  br i1 %26, label %_Z35pj_projection_specific_setup_fouc_sP8PJconsts.exit, label %27

27:                                               ; preds = %24
  %28 = getelementptr inbounds nuw i8, ptr %25, i64 8
  store ptr @.str, ptr %28, align 8, !tbaa !44
  %29 = getelementptr inbounds nuw i8, ptr %25, i64 16
  store ptr @_ZL10des_fouc_s, ptr %29, align 8, !tbaa !45
  %30 = getelementptr inbounds nuw i8, ptr %25, i64 360
  store i32 1, ptr %30, align 8, !tbaa !46
  %31 = getelementptr inbounds nuw i8, ptr %25, i64 380
  store i32 4, ptr %31, align 4, !tbaa !47
  %32 = getelementptr inbounds nuw i8, ptr %25, i64 384
  store i32 1, ptr %32, align 8, !tbaa !48
  br label %_Z35pj_projection_specific_setup_fouc_sP8PJconsts.exit

_Z35pj_projection_specific_setup_fouc_sP8PJconsts.exit: ; preds = %18, %16, %5, %24, %27
  %.0 = phi ptr [ %25, %27 ], [ null, %24 ], [ %6, %5 ], [ %17, %16 ], [ %0, %18 ]
  ret ptr %.0
}